target datalayout = "e-m:e-p270:32:32-p271:32:32-p272:64:64-i64:64-i128:128-f80:128-n8:16:32:64-S128"
target triple = "x86_64-pc-linux-gnu"

%struct.SDL_WaylandSeat = type { ptr, ptr, ptr, ptr, ptr, %struct.wl_list, i32, i32, %struct.anon, %struct.anon.1, %struct.anon.4, %struct.anon.5, %struct.anon.6 }
%struct.wl_list = type { ptr, ptr }
%struct.anon = type { ptr, ptr, ptr, ptr, ptr, %struct.SDL_WaylandKeyboardRepeat, i64, i16, i16, i32, i8, %struct.anon.0 }
%struct.SDL_WaylandKeyboardRepeat = type { i32, i32, i32, i8, i8, i32, i64, i64, i64, i32, [8 x i8] }
%struct.anon.0 = type { ptr, ptr, ptr, ptr, i32, i32, i32, i32, i32, i32, i32, i32, i32, i32, i32 }
%struct.anon.1 = type { ptr, ptr, ptr, ptr, ptr, ptr, ptr, ptr, i64, i32, i32, %struct.SDL_Point, i32, %struct.anon.2, %struct.anon.3 }
%struct.SDL_Point = type { i32, i32 }
%struct.anon.2 = type { i32, float, i32, float, i64, i32 }
%struct.anon.3 = type { ptr, ptr, ptr, i64, i64, i32 }
%struct.anon.4 = type { ptr, ptr, i64, %struct.wl_list }
%struct.anon.5 = type { ptr, %struct.SDL_Rect, i8, i8 }
%struct.SDL_Rect = type { i32, i32, i32, i32 }
%struct.anon.6 = type { ptr, %struct.wl_list }
%struct.SDL_AtomicInt = type { i32 }
%struct.SDL_WindowData = type { ptr, ptr, ptr, ptr, ptr, ptr, ptr, %union.anon, i32, i32, i32, i32, ptr, ptr, ptr, ptr, ptr, ptr, ptr, ptr, ptr, ptr, ptr, ptr, ptr, ptr, %struct.SDL_AtomicInt, ptr, i32, ptr, double, ptr, i32, i32, i32, i32, %struct.anon.14, %struct.anon.15, %struct.anon.16, %struct.anon.17, %struct.anon.18, %struct.anon.19, %struct.anon.20, i32, i32, i32, i64, i32, i32, i8, i8, i8, i8, i8, i8, i8, i8, i8, i8, i8, i8, i8, i8, i32, %struct.wl_list }
%union.anon = type { %struct.anon.10 }
%struct.anon.10 = type { ptr, %union.anon.11, i8 }
%union.anon.11 = type { %struct.anon.13 }
%struct.anon.13 = type { ptr, ptr }
%struct.anon.14 = type { double, double }
%struct.anon.15 = type { i32, i32, i32, i32 }
%struct.anon.16 = type { i32, i32, i32, i32 }
%struct.anon.17 = type { i32, i32 }
%struct.anon.18 = type { i32, i32 }
%struct.anon.19 = type { i32, i32 }
%struct.anon.20 = type { i32, i32, i8 }

; Function Attrs: nounwind uwtable
define internal void @pointer_handle_enter(ptr noundef %0, ptr noundef %1, i32 noundef %2, ptr noundef %3, i32 noundef %4, i32 noundef %5) #0 {
  %7 = alloca ptr, align 8
  %8 = alloca ptr, align 8
  %9 = alloca i32, align 4
  %10 = alloca ptr, align 8
  %11 = alloca i32, align 4
  %12 = alloca i32, align 4
  %13 = alloca ptr, align 8
  %14 = alloca i32, align 4
  %15 = alloca ptr, align 8
  store ptr %0, ptr %7, align 8
  store ptr %1, ptr %8, align 8
  store i32 %2, ptr %9, align 4
  store ptr %3, ptr %10, align 8
  store i32 %4, ptr %11, align 4
  store i32 %5, ptr %12, align 4
  %16 = load ptr, ptr %10, align 8
  %17 = icmp ne ptr %16, null
  br i1 %17, label %19, label %18

18:                                               ; preds = %6
  br label %49

19:                                               ; preds = %6
  call void @llvm.lifetime.start.p0(i64 8, ptr %13) #10
  %20 = load ptr, ptr %10, align 8
  %21 = call ptr @Wayland_GetWindowDataForOwnedSurface(ptr noundef %20)
  store ptr %21, ptr %13, align 8
  %22 = load ptr, ptr %13, align 8
  %23 = icmp ne ptr %22, null
  br i1 %23, label %25, label %24

24:                                               ; preds = %19
  store i32 1, ptr %14, align 4
  br label %47

25:                                               ; preds = %19
  call void @llvm.lifetime.start.p0(i64 8, ptr %15) #10
  %26 = load ptr, ptr %7, align 8
  store ptr %26, ptr %15, align 8
  %27 = load ptr, ptr %13, align 8
  %28 = load ptr, ptr %15, align 8
  %29 = getelementptr inbounds nuw %struct.SDL_WaylandSeat, ptr %28, i32 0, i32 9
  %30 = getelementptr inbounds nuw %struct.anon.1, ptr %29, i32 0, i32 6
  store ptr %27, ptr %30, align 8
  %31 = load i32, ptr %9, align 4
  %32 = load ptr, ptr %15, align 8
  %33 = getelementptr inbounds nuw %struct.SDL_WaylandSeat, ptr %32, i32 0, i32 9
  %34 = getelementptr inbounds nuw %struct.anon.1, ptr %33, i32 0, i32 9
  store i32 %31, ptr %34, align 8
  %35 = load ptr, ptr %13, align 8
  %36 = getelementptr inbounds nuw %struct.SDL_WindowData, ptr %35, i32 0, i32 34
  %37 = load i32, ptr %36, align 8
  %38 = add nsw i32 %37, 1
  store i32 %38, ptr %36, align 8
  %39 = load ptr, ptr %13, align 8
  %40 = getelementptr inbounds nuw %struct.SDL_WindowData, ptr %39, i32 0, i32 0
  %41 = load ptr, ptr %40, align 8
  call void @SDL_SetMouseFocus(ptr noundef %41)
  %42 = load ptr, ptr %15, align 8
  %43 = load i32, ptr %11, align 4
  %44 = load i32, ptr %12, align 4
  call void @pointer_handle_motion_common(ptr noundef %42, i64 noundef 0, i32 noundef %43, i32 noundef %44)
  %45 = load ptr, ptr %15, align 8
  call void @Wayland_SeatUpdatePointerGrab(ptr noundef %45)
  %46 = load ptr, ptr %15, align 8
  call void @Wayland_SeatUpdateCursor(ptr noundef %46)
  call void @llvm.lifetime.end.p0(i64 8, ptr %15) #10
  store i32 0, ptr %14, align 4
  br label %47

47:                                               ; preds = %25, %24
  call void @llvm.lifetime.end.p0(i64 8, ptr %13) #10
  %48 = load i32, ptr %14, align 4
  switch i32 %48, label %50 [
    i32 0, label %49
    i32 1, label %49
  ]

49:                                               ; preds = %18, %47, %47
  ret void

50:                                               ; preds = %47
  unreachable
}