; Function Attrs: nounwind uwtable
define internal void @pointer_handle_enter(ptr noundef %0, ptr readnone captures(none) %1, i32 noundef %2, ptr noundef %3, i32 noundef %4, i32 noundef %5) #0 {
  %.not = icmp eq ptr %3, null
  br i1 %.not, label %16, label %7

7:                                                ; preds = %6
  %8 = tail call ptr @Wayland_GetWindowDataForOwnedSurface(ptr noundef nonnull %3) #12
  %.not15 = icmp eq ptr %8, null
  br i1 %.not15, label %16, label %9

9:                                                ; preds = %7
  %10 = getelementptr inbounds nuw i8, ptr %0, i64 320
  store ptr %8, ptr %10, align 8
  %11 = getelementptr inbounds nuw i8, ptr %0, i64 344
  store i32 %2, ptr %11, align 8
  %12 = getelementptr inbounds nuw i8, ptr %8, i64 272
  %13 = load i32, ptr %12, align 8
  %14 = add nsw i32 %13, 1
  store i32 %14, ptr %12, align 8
  %15 = load ptr, ptr %8, align 8
  tail call void @SDL_SetMouseFocus(ptr noundef %15) #12
  tail call fastcc void @pointer_handle_motion_common(ptr noundef %0, i64 noundef 0, i32 noundef %4, i32 noundef %5)
  tail call void @Wayland_SeatUpdatePointerGrab(ptr noundef %0)
  tail call void @Wayland_SeatUpdateCursor(ptr noundef %0) #12
  br label %16

16:                                               ; preds = %9, %7, %6
  ret void
}